target datalayout = "e-m:e-p270:32:32-p271:32:32-p272:64:64-i64:64-i128:128-f80:128-n8:16:32:64-S128"
target triple = "x86_64-pc-linux-gnu"

@hf_ipmi_se_20_rq_op = internal global i32 0, align 4

; Function Attrs: null_pointer_is_valid sspstrong uwtable
define internal void @rq20(ptr noundef %0, ptr noundef %1, ptr noundef %2) #0 {
  %4 = alloca ptr, align 8
  %5 = alloca ptr, align 8
  %6 = alloca ptr, align 8
  store ptr %0, ptr %4, align 8
  store ptr %1, ptr %5, align 8
  store ptr %2, ptr %6, align 8
  %7 = load ptr, ptr %4, align 8
  %8 = call i32 @tvb_captured_length(ptr noundef %7)
  %9 = icmp ugt i32 %8, 0
  br i1 %9, label %10, label %20

10:                                               ; preds = %3
  %11 = load ptr, ptr %5, align 8
  %12 = load ptr, ptr %4, align 8
  %13 = call zeroext i8 @tvb_get_uint8(ptr noundef %12, i32 noundef 0)
  %14 = zext i8 %13 to i32
  %15 = and i32 %14, 1
  call void @ipmi_set_data(ptr noundef %11, i32 noundef 0, i32 noundef %15)
  %16 = load ptr, ptr %6, align 8
  %17 = load i32, ptr @hf_ipmi_se_20_rq_op, align 4
  %18 = load ptr, ptr %4, align 8
  %19 = call ptr @proto_tree_add_item(ptr noundef %16, i32 noundef %17, ptr noundef %18, i32 noundef 0, i32 noundef 1, i32 noundef -2147483648)
  br label %20

20:                                               ; preds = %10, %3
  ret void
}