; Function Attrs: null_pointer_is_valid sspstrong uwtable
define internal void @rq20(ptr noundef %0, ptr noundef %1, ptr noundef %2) #0 {
  %4 = tail call i32 @tvb_captured_length(ptr noundef %0)
  %.not = icmp eq i32 %4, 0
  br i1 %.not, label %11, label %5

5:                                                ; preds = %3
  %6 = tail call zeroext i8 @tvb_get_uint8(ptr noundef %0, i32 noundef 0)
  %7 = and i8 %6, 1
  %8 = zext nneg i8 %7 to i32
  tail call void @ipmi_set_data(ptr noundef %1, i32 noundef 0, i32 noundef %8)
  %9 = load i32, ptr @hf_ipmi_se_20_rq_op, align 4
  %10 = tail call ptr @proto_tree_add_item(ptr noundef %2, i32 noundef %9, ptr noundef %0, i32 noundef 0, i32 noundef 1, i32 noundef -2147483648)
  br label %11

11:                                               ; preds = %5, %3
  ret void
}